target datalayout = "e-m:e-p270:32:32-p271:32:32-p272:64:64-i64:64-i128:128-f80:128-n8:16:32:64-S128"
target triple = "x86_64-pc-linux-gnu"

%class.LogTagSet = type { ptr, i64, [5 x i32], [4 x i8], %class.LogOutputList, %class.LogDecorators, ptr }
%class.LogOutputList = type <{ [6 x ptr], i32, [4 x i8] }>
%class.LogDecorators = type { i32 }
%class.decode_env = type <{ ptr, ptr, ptr, ptr, ptr, [512 x i8], i8, [7 x i8], ptr, i32, i32, i32, i8, i8, i8, i8 }>

@_ZN12Disassembler8_libraryE = hidden global ptr null, align 8
@_ZN12Disassembler22_tried_to_load_libraryE = hidden global i8 0, align 1
@_ZN12Disassembler15_library_usableE = hidden global i8 0, align 1
@_ZN12Disassembler28_decode_instructions_virtualE = hidden global ptr null, align 8
@tty = external global ptr, align 8
@.str.56 = private unnamed_addr constant [5 x i8] c"%s%s\00", align 1
@_ZL18hsdis_library_name = internal constant [12 x i8] c"hsdis-amd64\00", align 1
@.str.57 = private unnamed_addr constant [4 x i8] c".so\00", align 1
@.str.58 = private unnamed_addr constant [7 x i8] c"libjvm\00", align 1
@_ZL32decode_instructions_virtual_name = internal constant [28 x i8] c"decode_instructions_virtual\00", align 16
@.str.59 = private unnamed_addr constant [29 x i8] c"Loading hsdis library failed\00", align 1
@.str.60 = private unnamed_addr constant [28 x i8] c"Loaded disassembler from %s\00", align 1
@.str.61 = private unnamed_addr constant [26 x i8] c"Could not load %s; %s; %s\00", align 1
@.str.62 = private unnamed_addr constant [23 x i8] c"entry point is missing\00", align 1
@.str.63 = private unnamed_addr constant [21 x i8] c"library not loadable\00", align 1
@.str.64 = private unnamed_addr constant [48 x i8] c"PrintAssembly defaults to abstract disassembly.\00", align 1
@_ZN16LogTagSetMappingILN6LogTag4typeE105ELS1_0ELS1_0ELS1_0ELS1_0ELS1_0EE7_tagsetE = linkonce_odr hidden global %class.LogTagSet zeroinitializer, comdat, align 8
@_ZN10decode_envC1EPhS0_P12outputStream = hidden unnamed_addr alias void (ptr, ptr, ptr, ptr), ptr @_ZN10decode_envC2EPhS0_P12outputStream

; Function Attrs: mustprogress nounwind uwtable
define linkonce_odr hidden noundef zeroext i1 @_ZNK13LogOutputList8is_levelEN8LogLevel4typeE(ptr noundef nonnull align 8 dereferenceable(52) %0, i32 noundef %1) #1 comdat align 2 {
  %3 = alloca ptr, align 8
  %4 = alloca i32, align 4
  store ptr %0, ptr %3, align 8
  store i32 %1, ptr %4, align 4
  %5 = load ptr, ptr %3, align 8
  %6 = getelementptr inbounds %class.LogOutputList, ptr %5, i32 0, i32 0
  %7 = load i32, ptr %4, align 4
  %8 = zext i32 %7 to i64
  %9 = getelementptr inbounds [6 x ptr], ptr %6, i64 0, i64 %8
  %10 = load volatile ptr, ptr %9, align 8
  %11 = icmp ne ptr %10, null
  ret i1 %11
}

; Function Attrs: mustprogress nounwind uwtable
define linkonce_odr hidden noundef zeroext i1 @_ZNK9LogTagSet8is_levelEN8LogLevel4typeE(ptr noundef nonnull align 8 dereferenceable(112) %0, i32 noundef %1) #1 comdat align 2 {
  %3 = alloca ptr, align 8
  %4 = alloca i32, align 4
  store ptr %0, ptr %3, align 8
  store i32 %1, ptr %4, align 4
  %5 = load ptr, ptr %3, align 8
  %6 = getelementptr inbounds %class.LogTagSet, ptr %5, i32 0, i32 4
  %7 = load i32, ptr %4, align 4
  %8 = call noundef zeroext i1 @_ZNK13LogOutputList8is_levelEN8LogLevel4typeE(ptr noundef nonnull align 8 dereferenceable(52) %6, i32 noundef %7)
  ret i1 %8
}

; Function Attrs: mustprogress nounwind uwtable
define linkonce_odr hidden noundef nonnull align 8 dereferenceable(112) ptr @_ZN16LogTagSetMappingILN6LogTag4typeE105ELS1_0ELS1_0ELS1_0ELS1_0ELS1_0EE6tagsetEv() #1 comdat align 2 {
  ret ptr @_ZN16LogTagSetMappingILN6LogTag4typeE105ELS1_0ELS1_0ELS1_0ELS1_0ELS1_0EE7_tagsetE
}

; Function Attrs: mustprogress nounwind uwtable
define linkonce_odr hidden noundef zeroext i1 @_ZN7LogImplILN6LogTag4typeE105ELS1_0ELS1_0ELS1_0ELS1_0ELS1_0EE8is_levelEN8LogLevel4typeE(i32 noundef %0) #1 comdat align 2 {
  %2 = alloca i32, align 4
  store i32 %0, ptr %2, align 4
  %3 = call noundef nonnull align 8 dereferenceable(112) ptr @_ZN16LogTagSetMappingILN6LogTag4typeE105ELS1_0ELS1_0ELS1_0ELS1_0ELS1_0EE6tagsetEv()
  %4 = load i32, ptr %2, align 4
  %5 = call noundef zeroext i1 @_ZNK9LogTagSet8is_levelEN8LogLevel4typeE(ptr noundef nonnull align 8 dereferenceable(112) %3, i32 noundef %4)
  ret i1 %5
}

; Function Attrs: mustprogress nounwind uwtable
define hidden noundef ptr @_ZN12Disassembler8dll_loadEPciiS0_iP12outputStream(ptr noundef %0, i32 noundef %1, i32 noundef %2, ptr noundef %3, i32 noundef %4, ptr noundef %5) #1 align 2 {
  %7 = alloca ptr, align 8
  %8 = alloca ptr, align 8
  %9 = alloca i32, align 4
  %10 = alloca i32, align 4
  %11 = alloca ptr, align 8
  %12 = alloca i32, align 4
  %13 = alloca ptr, align 8
  %14 = alloca i32, align 4
  %15 = alloca i32, align 4
  store ptr %0, ptr %8, align 8
  store i32 %1, ptr %9, align 4
  store i32 %2, ptr %10, align 4
  store ptr %3, ptr %11, align 8
  store i32 %4, ptr %12, align 4
  store ptr %5, ptr %13, align 8
  %16 = load i32, ptr %9, align 4
  %17 = load i32, ptr %10, align 4
  %18 = sub nsw i32 %16, %17
  store i32 %18, ptr %14, align 4
  %19 = load ptr, ptr %8, align 8
  %20 = load i32, ptr %10, align 4
  %21 = sext i32 %20 to i64
  %22 = getelementptr inbounds i8, ptr %19, i64 %21
  %23 = load i32, ptr %14, align 4
  %24 = sext i32 %23 to i64
  %25 = call i32 (ptr, i64, ptr, ...) @jio_snprintf(ptr noundef %22, i64 noundef %24, ptr noundef @.str.56, ptr noundef @_ZL18hsdis_library_name, ptr noundef @.str.57)
  store i32 %25, ptr %15, align 4
  %26 = load i32, ptr %15, align 4
  %27 = load i32, ptr %14, align 4
  %28 = icmp slt i32 %26, %27
  br i1 %28, label %29, label %34

29:                                               ; preds = %6
  %30 = load ptr, ptr %8, align 8
  %31 = load ptr, ptr %11, align 8
  %32 = load i32, ptr %12, align 4
  %33 = call noundef ptr @_ZN2os8dll_loadEPKcPci(ptr noundef %30, ptr noundef %31, i32 noundef %32)
  store ptr %33, ptr %7, align 8
  br label %36

34:                                               ; preds = %6
  br label %35

35:                                               ; preds = %34
  store ptr null, ptr %7, align 8
  br label %36

36:                                               ; preds = %35, %29
  %37 = load ptr, ptr %7, align 8
  ret ptr %37
}

; Function Attrs: mustprogress nounwind uwtable
define hidden noundef zeroext i1 @_ZN12Disassembler12load_libraryEP12outputStream(ptr noundef %0) #1 align 2 {
  %2 = alloca i1, align 1
  %3 = alloca ptr, align 8
  %4 = alloca [1024 x i8], align 16
  %5 = alloca [4097 x i8], align 16
  %6 = alloca i32, align 4
  %7 = alloca i32, align 4
  %8 = alloca ptr, align 8
  %9 = alloca ptr, align 8
  %10 = alloca ptr, align 8
  %11 = alloca %class.decode_env, align 8
  store ptr %0, ptr %3, align 8
  %12 = load i8, ptr @_ZN12Disassembler22_tried_to_load_libraryE, align 1
  %13 = trunc i8 %12 to i1
  br i1 %13, label %14, label %17

14:                                               ; preds = %1
  %15 = load i8, ptr @_ZN12Disassembler15_library_usableE, align 1
  %16 = trunc i8 %15 to i1
  store i1 %16, ptr %2, align 1
  br label %161

17:                                               ; preds = %1
  %18 = load ptr, ptr %3, align 8
  %19 = icmp eq ptr %18, null
  br i1 %19, label %20, label %23

20:                                               ; preds = %17
  br i1 false, label %21, label %23

21:                                               ; preds = %20
  %22 = load ptr, ptr @tty, align 8
  br label %25

23:                                               ; preds = %20, %17
  %24 = load ptr, ptr %3, align 8
  br label %25

25:                                               ; preds = %23, %21
  %26 = phi ptr [ %22, %21 ], [ %24, %23 ]
  store ptr %26, ptr %3, align 8
  %27 = getelementptr inbounds [4097 x i8], ptr %5, i64 0, i64 0
  call void @_ZN2os8jvm_pathEPci(ptr noundef %27, i32 noundef 4097)
  store i32 -1, ptr %6, align 4
  store i32 -1, ptr %7, align 4
  %28 = getelementptr inbounds [4097 x i8], ptr %5, i64 0, i64 0
  store ptr %28, ptr %8, align 8
  %29 = getelementptr inbounds [4097 x i8], ptr %5, i64 0, i64 0
  %30 = call noundef ptr @_ZN2os14file_separatorEv()
  %31 = load i8, ptr %30, align 1
  %32 = sext i8 %31 to i32
  %33 = call noundef ptr @strrchr(ptr noundef %29, i32 noundef %32) #11
  store ptr %33, ptr %9, align 8
  %34 = load ptr, ptr %9, align 8
  %35 = icmp ne ptr %34, null
  br i1 %35, label %36, label %44

36:                                               ; preds = %25
  %37 = load ptr, ptr %9, align 8
  %38 = load ptr, ptr %8, align 8
  %39 = ptrtoint ptr %37 to i64
  %40 = ptrtoint ptr %38 to i64
  %41 = sub i64 %39, %40
  %42 = add nsw i64 %41, 1
  %43 = trunc i64 %42 to i32
  store i32 %43, ptr %7, align 4
  br label %44

44:                                               ; preds = %36, %25
  %45 = load ptr, ptr %9, align 8
  %46 = icmp ne ptr %45, null
  br i1 %46, label %47, label %49

47:                                               ; preds = %44
  %48 = load ptr, ptr %9, align 8
  br label %51

49:                                               ; preds = %44
  %50 = load ptr, ptr %8, align 8
  br label %51

51:                                               ; preds = %49, %47
  %52 = phi ptr [ %48, %47 ], [ %50, %49 ]
  %53 = call noundef ptr @strstr(ptr noundef %52, ptr noundef @.str.58) #11
  store ptr %53, ptr %9, align 8
  %54 = load ptr, ptr %9, align 8
  %55 = icmp ne ptr %54, null
  br i1 %55, label %56, label %64

56:                                               ; preds = %51
  %57 = load ptr, ptr %9, align 8
  %58 = load ptr, ptr %8, align 8
  %59 = ptrtoint ptr %57 to i64
  %60 = ptrtoint ptr %58 to i64
  %61 = sub i64 %59, %60
  %62 = add nsw i64 %61, 3
  %63 = trunc i64 %62 to i32
  store i32 %63, ptr %6, align 4
  br label %64

64:                                               ; preds = %56, %51
  %65 = load i32, ptr %6, align 4
  %66 = icmp sge i32 %65, 0
  br i1 %66, label %67, label %117

67:                                               ; preds = %64
  %68 = getelementptr inbounds [4097 x i8], ptr %5, i64 0, i64 0
  %69 = load i32, ptr %6, align 4
  %70 = getelementptr inbounds [1024 x i8], ptr %4, i64 0, i64 0
  %71 = load ptr, ptr %3, align 8
  %72 = call noundef ptr @_ZN12Disassembler8dll_loadEPciiS0_iP12outputStream(ptr noundef %68, i32 noundef 4097, i32 noundef %69, ptr noundef %70, i32 noundef 1024, ptr noundef %71)
  store ptr %72, ptr @_ZN12Disassembler8_libraryE, align 8
  %73 = load ptr, ptr @_ZN12Disassembler8_libraryE, align 8
  %74 = icmp eq ptr %73, null
  br i1 %74, label %75, label %84

75:                                               ; preds = %67
  %76 = load i32, ptr %7, align 4
  %77 = icmp sge i32 %76, 0
  br i1 %77, label %78, label %84

78:                                               ; preds = %75
  %79 = getelementptr inbounds [4097 x i8], ptr %5, i64 0, i64 0
  %80 = load i32, ptr %7, align 4
  %81 = getelementptr inbounds [1024 x i8], ptr %4, i64 0, i64 0
  %82 = load ptr, ptr %3, align 8
  %83 = call noundef ptr @_ZN12Disassembler8dll_loadEPciiS0_iP12outputStream(ptr noundef %79, i32 noundef 4097, i32 noundef %80, ptr noundef %81, i32 noundef 1024, ptr noundef %82)
  store ptr %83, ptr @_ZN12Disassembler8_libraryE, align 8
  br label %84

84:                                               ; preds = %78, %75, %67
  %85 = load ptr, ptr @_ZN12Disassembler8_libraryE, align 8
  %86 = icmp eq ptr %85, null
  br i1 %86, label %87, label %116

87:                                               ; preds = %84
  %88 = load i32, ptr %7, align 4
  %89 = icmp sgt i32 %88, 0
  br i1 %89, label %90, label %116

90:                                               ; preds = %87
  %91 = load i32, ptr %7, align 4
  %92 = sub nsw i32 %91, 1
  %93 = sext i32 %92 to i64
  %94 = getelementptr inbounds [4097 x i8], ptr %5, i64 0, i64 %93
  store i8 0, ptr %94, align 1
  %95 = getelementptr inbounds [4097 x i8], ptr %5, i64 0, i64 0
  %96 = call noundef ptr @_ZN2os14file_separatorEv()
  %97 = load i8, ptr %96, align 1
  %98 = sext i8 %97 to i32
  %99 = call noundef ptr @strrchr(ptr noundef %95, i32 noundef %98) #11
  store ptr %99, ptr %10, align 8
  %100 = load ptr, ptr %10, align 8
  %101 = icmp ne ptr %100, null
  br i1 %101, label %102, label %115

102:                                              ; preds = %90
  %103 = load ptr, ptr %10, align 8
  %104 = getelementptr inbounds [4097 x i8], ptr %5, i64 0, i64 0
  %105 = ptrtoint ptr %103 to i64
  %106 = ptrtoint ptr %104 to i64
  %107 = sub i64 %105, %106
  %108 = add nsw i64 %107, 1
  %109 = trunc i64 %108 to i32
  store i32 %109, ptr %7, align 4
  %110 = getelementptr inbounds [4097 x i8], ptr %5, i64 0, i64 0
  %111 = load i32, ptr %7, align 4
  %112 = getelementptr inbounds [1024 x i8], ptr %4, i64 0, i64 0
  %113 = load ptr, ptr %3, align 8
  %114 = call noundef ptr @_ZN12Disassembler8dll_loadEPciiS0_iP12outputStream(ptr noundef %110, i32 noundef 4097, i32 noundef %111, ptr noundef %112, i32 noundef 1024, ptr noundef %113)
  store ptr %114, ptr @_ZN12Disassembler8_libraryE, align 8
  br label %115

115:                                              ; preds = %102, %90
  br label %116

116:                                              ; preds = %115, %87, %84
  br label %117

117:                                              ; preds = %116, %64
  %118 = load ptr, ptr @_ZN12Disassembler8_libraryE, align 8
  %119 = icmp eq ptr %118, null
  br i1 %119, label %120, label %125

120:                                              ; preds = %117
  %121 = getelementptr inbounds [4097 x i8], ptr %5, i64 0, i64 0
  %122 = getelementptr inbounds [1024 x i8], ptr %4, i64 0, i64 0
  %123 = load ptr, ptr %3, align 8
  %124 = call noundef ptr @_ZN12Disassembler8dll_loadEPciiS0_iP12outputStream(ptr noundef %121, i32 noundef 4097, i32 noundef 0, ptr noundef %122, i32 noundef 1024, ptr noundef %123)
  store ptr %124, ptr @_ZN12Disassembler8_libraryE, align 8
  br label %125

125:                                              ; preds = %120, %117
  %126 = load ptr, ptr @_ZN12Disassembler8_libraryE, align 8
  %127 = icmp ne ptr %126, null
  br i1 %127, label %128, label %131

128:                                              ; preds = %125
  %129 = load ptr, ptr @_ZN12Disassembler8_libraryE, align 8
  %130 = call noundef ptr @_ZN2os10dll_lookupEPvPKc(ptr noundef %129, ptr noundef @_ZL32decode_instructions_virtual_name)
  store ptr %130, ptr @_ZN12Disassembler28_decode_instructions_virtualE, align 8
  br label %136

131:                                              ; preds = %125
  %132 = call noundef zeroext i1 @_ZN7LogImplILN6LogTag4typeE105ELS1_0ELS1_0ELS1_0ELS1_0ELS1_0EE8is_levelEN8LogLevel4typeE(i32 noundef 4)
  br i1 %132, label %134, label %133

133:                                              ; preds = %131
  br label %135

134:                                              ; preds = %131
  call void (ptr, ...) @_ZN7LogImplILN6LogTag4typeE105ELS1_0ELS1_0ELS1_0ELS1_0ELS1_0EE5writeILN8LogLevel4typeE4EEEvPKcz(ptr noundef @.str.59)
  br label %135

135:                                              ; preds = %134, %133
  br label %136

136:                                              ; preds = %135, %128
  store i8 1, ptr @_ZN12Disassembler22_tried_to_load_libraryE, align 1
  %137 = load ptr, ptr @_ZN12Disassembler28_decode_instructions_virtualE, align 8
  %138 = icmp ne ptr %137, null
  %139 = zext i1 %138 to i8
  store i8 %139, ptr @_ZN12Disassembler15_library_usableE, align 1
  %140 = getelementptr inbounds [4097 x i8], ptr %5, i64 0, i64 0
  %141 = getelementptr inbounds [4097 x i8], ptr %5, i64 0, i64 1
  %142 = load ptr, ptr %3, align 8
  call void @_ZN10decode_envC1EPhS0_P12outputStream(ptr noundef nonnull align 8 dereferenceable(583) %11, ptr noundef %140, ptr noundef %141, ptr noundef %142)
  %143 = load ptr, ptr %3, align 8
  %144 = icmp ne ptr %143, null
  br i1 %144, label %145, label %158

145:                                              ; preds = %136
  %146 = load i8, ptr @_ZN12Disassembler15_library_usableE, align 1
  %147 = trunc i8 %146 to i1
  br i1 %147, label %148, label %151

148:                                              ; preds = %145
  %149 = load ptr, ptr %3, align 8
  %150 = getelementptr inbounds [4097 x i8], ptr %5, i64 0, i64 0
  call void (ptr, ptr, ...) @_ZN12outputStream8print_crEPKcz(ptr noundef nonnull align 8 dereferenceable(56) %149, ptr noundef @.str.60, ptr noundef %150)
  br label %157

151:                                              ; preds = %145
  %152 = load ptr, ptr %3, align 8
  %153 = getelementptr inbounds [4097 x i8], ptr %5, i64 0, i64 0
  %154 = load ptr, ptr @_ZN12Disassembler8_libraryE, align 8
  %155 = icmp ne ptr %154, null
  %156 = select i1 %155, ptr @.str.62, ptr @.str.63
  call void (ptr, ptr, ...) @_ZN12outputStream8print_crEPKcz(ptr noundef nonnull align 8 dereferenceable(56) %152, ptr noundef @.str.61, ptr noundef %153, ptr noundef %156, ptr noundef @.str.64)
  br label %157

157:                                              ; preds = %151, %148
  br label %158

158:                                              ; preds = %157, %136
  %159 = load i8, ptr @_ZN12Disassembler15_library_usableE, align 1
  %160 = trunc i8 %159 to i1
  store i1 %160, ptr %2, align 1
  br label %161

161:                                              ; preds = %158, %14
  %162 = load i1, ptr %2, align 1
  ret i1 %162
}