; Function Attrs: mustprogress nounwind uwtable
define hidden noundef zeroext i1 @_ZN12Disassembler12load_libraryEP12outputStream(ptr noundef %0) local_unnamed_addr #0 align 2 {
  %2 = alloca [1024 x i8], align 16
  %3 = alloca [4097 x i8], align 16
  %4 = alloca %class.decode_env, align 8
  %5 = load i8, ptr @_ZN12Disassembler22_tried_to_load_libraryE, align 1
  %6 = trunc i8 %5 to i1
  br i1 %6, label %99, label %7

7:                                                ; preds = %1
  call void @_ZN2os8jvm_pathEPci(ptr noundef nonnull %3, i32 noundef 4097) #11
  %8 = call noundef ptr @_ZN2os14file_separatorEv() #11
  %9 = load i8, ptr %8, align 1
  %10 = sext i8 %9 to i32
  %11 = call noundef ptr @strrchr(ptr noundef nonnull dereferenceable(1) %3, i32 noundef %10) #12
  %.not = icmp eq ptr %11, null
  %12 = ptrtoint ptr %11 to i64
  %13 = ptrtoint ptr %3 to i64
  %14 = sub i64 %12, %13
  %15 = trunc i64 %14 to i32
  %16 = add i32 %15, 1
  %17 = select i1 %.not, ptr %3, ptr %11
  %.031 = select i1 %.not, i32 -1, i32 %16
  %18 = call noundef ptr @strstr(ptr noundef nonnull dereferenceable(1) %17, ptr noundef nonnull dereferenceable(1) @.str.58) #12
  %.not38 = icmp eq ptr %18, null
  %19 = ptrtoint ptr %18 to i64
  %20 = sub i64 %19, %13
  %21 = trunc i64 %20 to i32
  %22 = add i32 %21, 3
  %.032 = select i1 %.not38, i32 -1, i32 %22
  %23 = icmp sgt i32 %.032, -1
  br i1 %23, label %24, label %thread-pre-split

24:                                               ; preds = %7
  %25 = sub nsw i32 4097, %.032
  %26 = zext nneg i32 %.032 to i64
  %27 = getelementptr inbounds i8, ptr %3, i64 %26
  %28 = sext i32 %25 to i64
  %29 = call i32 (ptr, i64, ptr, ...) @jio_snprintf(ptr noundef nonnull %27, i64 noundef %28, ptr noundef nonnull @.str.56, ptr noundef nonnull @_ZL18hsdis_library_name, ptr noundef nonnull @.str.57) #11
  %30 = icmp slt i32 %29, %25
  br i1 %30, label %31, label %_ZN12Disassembler8dll_loadEPciiS0_iP12outputStream.exit

31:                                               ; preds = %24
  %32 = call noundef ptr @_ZN2os8dll_loadEPKcPci(ptr noundef nonnull %3, ptr noundef nonnull %2, i32 noundef 1024) #11
  br label %_ZN12Disassembler8dll_loadEPciiS0_iP12outputStream.exit

_ZN12Disassembler8dll_loadEPciiS0_iP12outputStream.exit: ; preds = %24, %31
  %.0.i = phi ptr [ %32, %31 ], [ null, %24 ]
  store ptr %.0.i, ptr @_ZN12Disassembler8_libraryE, align 8
  %33 = icmp eq ptr %.0.i, null
  %34 = icmp sgt i32 %.031, -1
  %or.cond = and i1 %34, %33
  br i1 %or.cond, label %35, label %44

35:                                               ; preds = %_ZN12Disassembler8dll_loadEPciiS0_iP12outputStream.exit
  %36 = sub nsw i32 4097, %.031
  %37 = zext nneg i32 %.031 to i64
  %38 = getelementptr inbounds i8, ptr %3, i64 %37
  %39 = sext i32 %36 to i64
  %40 = call i32 (ptr, i64, ptr, ...) @jio_snprintf(ptr noundef nonnull %38, i64 noundef %39, ptr noundef nonnull @.str.56, ptr noundef nonnull @_ZL18hsdis_library_name, ptr noundef nonnull @.str.57) #11
  %41 = icmp slt i32 %40, %36
  br i1 %41, label %42, label %_ZN12Disassembler8dll_loadEPciiS0_iP12outputStream.exit44

42:                                               ; preds = %35
  %43 = call noundef ptr @_ZN2os8dll_loadEPKcPci(ptr noundef nonnull %3, ptr noundef nonnull %2, i32 noundef 1024) #11
  br label %_ZN12Disassembler8dll_loadEPciiS0_iP12outputStream.exit44

_ZN12Disassembler8dll_loadEPciiS0_iP12outputStream.exit44: ; preds = %35, %42
  %.0.i43 = phi ptr [ %43, %42 ], [ null, %35 ]
  store ptr %.0.i43, ptr @_ZN12Disassembler8_libraryE, align 8
  br label %44

44:                                               ; preds = %_ZN12Disassembler8dll_loadEPciiS0_iP12outputStream.exit44, %_ZN12Disassembler8dll_loadEPciiS0_iP12outputStream.exit
  %45 = phi ptr [ %.0.i43, %_ZN12Disassembler8dll_loadEPciiS0_iP12outputStream.exit44 ], [ %.0.i, %_ZN12Disassembler8dll_loadEPciiS0_iP12outputStream.exit ]
  %46 = icmp eq ptr %45, null
  %47 = icmp sgt i32 %.031, 0
  %or.cond3 = and i1 %47, %46
  br i1 %or.cond3, label %48, label %69

48:                                               ; preds = %44
  %49 = add nsw i32 %.031, -1
  %50 = zext nneg i32 %49 to i64
  %51 = getelementptr inbounds [4097 x i8], ptr %3, i64 0, i64 %50
  store i8 0, ptr %51, align 1
  %52 = call noundef ptr @_ZN2os14file_separatorEv() #11
  %53 = load i8, ptr %52, align 1
  %54 = sext i8 %53 to i32
  %55 = call noundef ptr @strrchr(ptr noundef nonnull dereferenceable(1) %3, i32 noundef %54) #12
  %.not39 = icmp eq ptr %55, null
  br i1 %.not39, label %thread-pre-split, label %56

56:                                               ; preds = %48
  %57 = ptrtoint ptr %55 to i64
  %58 = sub i64 %57, %13
  %59 = trunc i64 %58 to i32
  %60 = sub i32 4096, %59
  %61 = shl i64 %58, 32
  %sext = add i64 %61, 4294967296
  %62 = ashr exact i64 %sext, 32
  %63 = getelementptr inbounds i8, ptr %3, i64 %62
  %64 = sext i32 %60 to i64
  %65 = call i32 (ptr, i64, ptr, ...) @jio_snprintf(ptr noundef nonnull %63, i64 noundef %64, ptr noundef nonnull @.str.56, ptr noundef nonnull @_ZL18hsdis_library_name, ptr noundef nonnull @.str.57) #11
  %66 = icmp slt i32 %65, %60
  br i1 %66, label %67, label %_ZN12Disassembler8dll_loadEPciiS0_iP12outputStream.exit46

67:                                               ; preds = %56
  %68 = call noundef ptr @_ZN2os8dll_loadEPKcPci(ptr noundef nonnull %3, ptr noundef nonnull %2, i32 noundef 1024) #11
  br label %_ZN12Disassembler8dll_loadEPciiS0_iP12outputStream.exit46

_ZN12Disassembler8dll_loadEPciiS0_iP12outputStream.exit46: ; preds = %56, %67
  %.0.i45 = phi ptr [ %68, %67 ], [ null, %56 ]
  store ptr %.0.i45, ptr @_ZN12Disassembler8_libraryE, align 8
  br label %69

thread-pre-split:                                 ; preds = %7, %48
  %.pr = load ptr, ptr @_ZN12Disassembler8_libraryE, align 8
  br label %69

69:                                               ; preds = %thread-pre-split, %44, %_ZN12Disassembler8dll_loadEPciiS0_iP12outputStream.exit46
  %.pr50 = phi ptr [ %.pr, %thread-pre-split ], [ %45, %44 ], [ %.0.i45, %_ZN12Disassembler8dll_loadEPciiS0_iP12outputStream.exit46 ]
  %70 = icmp eq ptr %.pr50, null
  br i1 %70, label %71, label %thread-pre-split49.thread

71:                                               ; preds = %69
  %72 = call i32 (ptr, i64, ptr, ...) @jio_snprintf(ptr noundef nonnull %3, i64 noundef 4097, ptr noundef nonnull @.str.56, ptr noundef nonnull @_ZL18hsdis_library_name, ptr noundef nonnull @.str.57) #11
  %73 = icmp slt i32 %72, 4097
  br i1 %73, label %thread-pre-split49, label %thread-pre-split49.thread53

thread-pre-split49.thread53:                      ; preds = %71
  store ptr null, ptr @_ZN12Disassembler8_libraryE, align 8
  br label %77

thread-pre-split49:                               ; preds = %71
  %74 = call noundef ptr @_ZN2os8dll_loadEPKcPci(ptr noundef nonnull %3, ptr noundef nonnull %2, i32 noundef 1024) #11
  store ptr %74, ptr @_ZN12Disassembler8_libraryE, align 8
  %.not40 = icmp eq ptr %74, null
  br i1 %.not40, label %77, label %thread-pre-split49.thread

thread-pre-split49.thread:                        ; preds = %69, %thread-pre-split49
  %75 = phi ptr [ %74, %thread-pre-split49 ], [ %.pr50, %69 ]
  %76 = call noundef ptr @_ZN2os10dll_lookupEPvPKc(ptr noundef nonnull %75, ptr noundef nonnull @_ZL32decode_instructions_virtual_name) #11
  store ptr %76, ptr @_ZN12Disassembler28_decode_instructions_virtualE, align 8
  br label %80

77:                                               ; preds = %thread-pre-split49.thread53, %thread-pre-split49
  %78 = load volatile ptr, ptr getelementptr inbounds (i8, ptr @_ZN16LogTagSetMappingILN6LogTag4typeE105ELS1_0ELS1_0ELS1_0ELS1_0ELS1_0EE7_tagsetE, i64 72), align 8
  %.not51 = icmp eq ptr %78, null
  br i1 %.not51, label %80, label %79

79:                                               ; preds = %77
  call void (ptr, ...) @_ZN7LogImplILN6LogTag4typeE105ELS1_0ELS1_0ELS1_0ELS1_0ELS1_0EE5writeILN8LogLevel4typeE4EEEvPKcz(ptr noundef nonnull @.str.59)
  br label %80

80:                                               ; preds = %79, %77, %thread-pre-split49.thread
  store i8 1, ptr @_ZN12Disassembler22_tried_to_load_libraryE, align 1
  %81 = load ptr, ptr @_ZN12Disassembler28_decode_instructions_virtualE, align 8
  %82 = icmp ne ptr %81, null
  %83 = zext i1 %82 to i8
  store i8 %83, ptr @_ZN12Disassembler15_library_usableE, align 1
  %84 = getelementptr inbounds i8, ptr %3, i64 1
  %.not.i = icmp eq ptr %0, null
  %85 = load ptr, ptr @tty, align 8
  %86 = select i1 %.not.i, ptr %85, ptr %0
  store ptr %86, ptr %4, align 8
  %87 = getelementptr inbounds i8, ptr %4, i64 8
  %88 = getelementptr inbounds i8, ptr %4, i64 24
  call void @llvm.memset.p0.i64(ptr noundef nonnull align 8 dereferenceable(16) %87, i8 0, i64 16, i1 false)
  store ptr %3, ptr %88, align 8
  %89 = getelementptr inbounds i8, ptr %4, i64 32
  store ptr %84, ptr %89, align 8
  %90 = getelementptr inbounds i8, ptr %4, i64 40
  %91 = getelementptr inbounds i8, ptr %4, i64 560
  call void @llvm.memset.p0.i64(ptr noundef nonnull align 8 dereferenceable(513) %90, i8 0, i64 513, i1 false)
  call void @llvm.memset.p0.i64(ptr noundef nonnull align 8 dereferenceable(23) %91, i8 0, i64 23, i1 false)
  call void @_ZN10decode_env15process_optionsEP12outputStream(ptr noundef nonnull align 8 dereferenceable(583) %4, ptr noundef %86)
  br i1 %.not.i, label %99, label %92

92:                                               ; preds = %80
  %93 = load i8, ptr @_ZN12Disassembler15_library_usableE, align 1
  %94 = trunc i8 %93 to i1
  br i1 %94, label %95, label %96

95:                                               ; preds = %92
  call void (ptr, ptr, ...) @_ZN12outputStream8print_crEPKcz(ptr noundef nonnull align 8 dereferenceable(56) %0, ptr noundef nonnull @.str.60, ptr noundef nonnull %3) #11
  br label %99

96:                                               ; preds = %92
  %97 = load ptr, ptr @_ZN12Disassembler8_libraryE, align 8
  %.not42 = icmp eq ptr %97, null
  %98 = select i1 %.not42, ptr @.str.63, ptr @.str.62
  call void (ptr, ptr, ...) @_ZN12outputStream8print_crEPKcz(ptr noundef nonnull align 8 dereferenceable(56) %0, ptr noundef nonnull @.str.61, ptr noundef nonnull %3, ptr noundef nonnull %98, ptr noundef nonnull @.str.64) #11
  br label %99

99:                                               ; preds = %80, %96, %95, %1
  %.0.in = load i8, ptr @_ZN12Disassembler15_library_usableE, align 1
  %.0 = trunc i8 %.0.in to i1
  ret i1 %.0
}